target datalayout = "e-m:e-p270:32:32-p271:32:32-p272:64:64-i64:64-i128:128-f80:128-n8:16:32:64-S128"
target triple = "x86_64-pc-linux-gnu"

%struct.loose_object_map = type { ptr, ptr }

; Function Attrs: inlinehint nounwind uwtable
define internal ptr @kh_init_oid_map() #3 {
  %1 = call ptr @xcalloc(i64 noundef 1, i64 noundef 40)
  ret ptr %1
}

; Function Attrs: nounwind uwtable
define dso_local void @loose_object_map_init(ptr noundef %0) #0 {
  %2 = alloca ptr, align 8
  %3 = alloca ptr, align 8
  store ptr %0, ptr %2, align 8, !tbaa !4
  call void @llvm.lifetime.start.p0(i64 8, ptr %3) #11
  %4 = call ptr @xmalloc(i64 noundef 16)
  store ptr %4, ptr %3, align 8, !tbaa !9
  %5 = call ptr @kh_init_oid_map()
  %6 = load ptr, ptr %3, align 8, !tbaa !9
  %7 = getelementptr inbounds nuw %struct.loose_object_map, ptr %6, i32 0, i32 0
  store ptr %5, ptr %7, align 8, !tbaa !11
  %8 = call ptr @kh_init_oid_map()
  %9 = load ptr, ptr %3, align 8, !tbaa !9
  %10 = getelementptr inbounds nuw %struct.loose_object_map, ptr %9, i32 0, i32 1
  store ptr %8, ptr %10, align 8, !tbaa !14
  %11 = load ptr, ptr %3, align 8, !tbaa !9
  %12 = load ptr, ptr %2, align 8, !tbaa !4
  store ptr %11, ptr %12, align 8, !tbaa !9
  call void @llvm.lifetime.end.p0(i64 8, ptr %3) #11
  ret void
}