; Function Attrs: nounwind uwtable
define dso_local void @loose_object_map_init(ptr noundef writeonly captures(none) initializes((0, 8)) %0) local_unnamed_addr #0 {
  %2 = tail call ptr @xmalloc(i64 noundef 16) #15
  %3 = tail call ptr @xcalloc(i64 noundef 1, i64 noundef 40) #15
  store ptr %3, ptr %2, align 8, !tbaa !4
  %4 = tail call ptr @xcalloc(i64 noundef 1, i64 noundef 40) #15
  %5 = getelementptr inbounds nuw i8, ptr %2, i64 8
  store ptr %4, ptr %5, align 8, !tbaa !10
  store ptr %2, ptr %0, align 8, !tbaa !11
  ret void
}